target datalayout = "e-m:e-p270:32:32-p271:32:32-p272:64:64-i64:64-i128:128-f80:128-n8:16:32:64-S128"
target triple = "x86_64-unknown-linux-gnu"

%class.symbol = type { ptr }
%class.app = type { %class.expr, ptr, i32, [0 x ptr] }
%class.expr = type { %class.ast }
%class.ast = type { i32, i24, i32, i32 }
%class.decl = type { %class.ast, %class.symbol, ptr }
%class.vector.380 = type { ptr }
%class.decl_info = type <{ i32, i32, %class.vector.380, i8, [7 x i8] }>

@.str = private unnamed_addr constant [105 x i8] c"generated/home/dtcxzyw/WorkSpace/Projects/compilers/llvm-opt-benchmark/bench/z3/z3/src/smt/theory_bv.cpp\00", align 1
@.str.9 = private unnamed_addr constant [29 x i8] c"UNEXPECTED CODE WAS REACHED.\00", align 1

; Function Attrs: mustprogress nounwind uwtable
define linkonce_odr hidden noundef i32 @_ZNK9decl_info13get_decl_kindEv(ptr noundef nonnull align 8 dereferenceable(17) %this) #4 comdat align 2 {
entry:
  %this.addr = alloca ptr, align 8
  store ptr %this, ptr %this.addr, align 8
  %this1 = load ptr, ptr %this.addr, align 8
  %m_kind = getelementptr inbounds %class.decl_info, ptr %this1, i32 0, i32 1
  %0 = load i32, ptr %m_kind, align 4
  ret i32 %0
}

; Function Attrs: mustprogress uwtable
define linkonce_odr hidden noundef i32 @_ZNK4decl13get_decl_kindEv(ptr noundef nonnull align 8 dereferenceable(32) %this) #5 comdat align 2 {
entry:
  %this.addr = alloca ptr, align 8
  store ptr %this, ptr %this.addr, align 8
  %this1 = load ptr, ptr %this.addr, align 8
  %m_info = getelementptr inbounds %class.decl, ptr %this1, i32 0, i32 2
  %0 = load ptr, ptr %m_info, align 8
  %cmp = icmp eq ptr %0, null
  br i1 %cmp, label %cond.true, label %cond.false

cond.true:                                        ; preds = %entry
  br label %cond.end

cond.false:                                       ; preds = %entry
  %m_info2 = getelementptr inbounds %class.decl, ptr %this1, i32 0, i32 2
  %1 = load ptr, ptr %m_info2, align 8
  %call = call noundef i32 @_ZNK9decl_info13get_decl_kindEv(ptr noundef nonnull align 8 dereferenceable(17) %1)
  br label %cond.end

cond.end:                                         ; preds = %cond.false, %cond.true
  %cond = phi i32 [ -1, %cond.true ], [ %call, %cond.false ]
  ret i32 %cond
}

; Function Attrs: mustprogress nounwind uwtable
define linkonce_odr hidden noundef ptr @_ZNK3app8get_declEv(ptr noundef nonnull align 8 dereferenceable(32) %this) #4 comdat align 2 {
entry:
  %this.addr = alloca ptr, align 8
  store ptr %this, ptr %this.addr, align 8
  %this1 = load ptr, ptr %this.addr, align 8
  %m_decl = getelementptr inbounds %class.app, ptr %this1, i32 0, i32 1
  %0 = load ptr, ptr %m_decl, align 8
  ret ptr %0
}

; Function Attrs: mustprogress uwtable
define linkonce_odr hidden noundef i32 @_ZNK3app13get_decl_kindEv(ptr noundef nonnull align 8 dereferenceable(32) %this) #5 comdat align 2 {
entry:
  %this.addr = alloca ptr, align 8
  store ptr %this, ptr %this.addr, align 8
  %this1 = load ptr, ptr %this.addr, align 8
  %call = call noundef ptr @_ZNK3app8get_declEv(ptr noundef nonnull align 8 dereferenceable(32) %this1)
  %call2 = call noundef i32 @_ZNK4decl13get_decl_kindEv(ptr noundef nonnull align 8 dereferenceable(32) %call)
  ret i32 %call2
}

; Function Attrs: mustprogress uwtable
define hidden noundef zeroext i1 @_ZN3smt9theory_bv16internalize_atomEP3appb(ptr noundef nonnull align 8 dereferenceable(1048) %this, ptr noundef %atom, i1 noundef zeroext %gate_ctx) unnamed_addr #5 align 2 {
entry:
  %retval = alloca i1, align 1
  %this.addr = alloca ptr, align 8
  %atom.addr = alloca ptr, align 8
  %gate_ctx.addr = alloca i8, align 1
  store ptr %this, ptr %this.addr, align 8
  store ptr %atom, ptr %atom.addr, align 8
  %frombool = zext i1 %gate_ctx to i8
  store i8 %frombool, ptr %gate_ctx.addr, align 1
  %this1 = load ptr, ptr %this.addr, align 8
  %0 = load ptr, ptr %atom.addr, align 8
  %call = call noundef zeroext i1 @_ZN3smt9theory_bv16approximate_termEP3app(ptr noundef nonnull align 8 dereferenceable(1048) %this1, ptr noundef %0)
  br i1 %call, label %if.then, label %if.end

if.then:                                          ; preds = %entry
  store i1 false, ptr %retval, align 1
  br label %return

if.end:                                           ; preds = %entry
  %1 = load ptr, ptr %atom.addr, align 8
  %call2 = call noundef i32 @_ZNK3app13get_decl_kindEv(ptr noundef nonnull align 8 dereferenceable(32) %1)
  switch i32 %call2, label %sw.default [
    i32 63, label %sw.bb
    i32 22, label %sw.bb3
    i32 23, label %sw.bb4
    i32 68, label %sw.bb5
    i32 67, label %sw.bb7
    i32 52, label %sw.bb10
    i32 53, label %sw.bb11
    i32 54, label %sw.bb12
  ]

sw.bb:                                            ; preds = %if.end
  %2 = load ptr, ptr %atom.addr, align 8
  call void @_ZN3smt9theory_bv11mk_bit2boolEP3app(ptr noundef nonnull align 8 dereferenceable(1048) %this1, ptr noundef %2)
  store i1 true, ptr %retval, align 1
  br label %return

sw.bb3:                                           ; preds = %if.end
  %3 = load ptr, ptr %atom.addr, align 8
  call void @_ZN3smt9theory_bv14internalize_leILb0EEEvP3app(ptr noundef nonnull align 8 dereferenceable(1048) %this1, ptr noundef %3)
  store i1 true, ptr %retval, align 1
  br label %return

sw.bb4:                                           ; preds = %if.end
  %4 = load ptr, ptr %atom.addr, align 8
  call void @_ZN3smt9theory_bv14internalize_leILb1EEEvP3app(ptr noundef nonnull align 8 dereferenceable(1048) %this1, ptr noundef %4)
  store i1 true, ptr %retval, align 1
  br label %return

sw.bb5:                                           ; preds = %if.end
  %5 = load ptr, ptr %atom.addr, align 8
  %6 = load i8, ptr %gate_ctx.addr, align 1
  %tobool = trunc i8 %6 to i1
  %call6 = call noundef zeroext i1 @_ZN3smt9theory_bv16internalize_xor3EP3appb(ptr noundef nonnull align 8 dereferenceable(1048) %this1, ptr noundef %5, i1 noundef zeroext %tobool)
  store i1 %call6, ptr %retval, align 1
  br label %return

sw.bb7:                                           ; preds = %if.end
  %7 = load ptr, ptr %atom.addr, align 8
  %8 = load i8, ptr %gate_ctx.addr, align 1
  %tobool8 = trunc i8 %8 to i1
  %call9 = call noundef zeroext i1 @_ZN3smt9theory_bv17internalize_carryEP3appb(ptr noundef nonnull align 8 dereferenceable(1048) %this1, ptr noundef %7, i1 noundef zeroext %tobool8)
  store i1 %call9, ptr %retval, align 1
  br label %return

sw.bb10:                                          ; preds = %if.end
  %9 = load ptr, ptr %atom.addr, align 8
  call void @_ZN3smt9theory_bv28internalize_umul_no_overflowEP3app(ptr noundef nonnull align 8 dereferenceable(1048) %this1, ptr noundef %9)
  store i1 true, ptr %retval, align 1
  br label %return

sw.bb11:                                          ; preds = %if.end
  %10 = load ptr, ptr %atom.addr, align 8
  call void @_ZN3smt9theory_bv28internalize_smul_no_overflowEP3app(ptr noundef nonnull align 8 dereferenceable(1048) %this1, ptr noundef %10)
  store i1 true, ptr %retval, align 1
  br label %return

sw.bb12:                                          ; preds = %if.end
  %11 = load ptr, ptr %atom.addr, align 8
  call void @_ZN3smt9theory_bv29internalize_smul_no_underflowEP3app(ptr noundef nonnull align 8 dereferenceable(1048) %this1, ptr noundef %11)
  store i1 true, ptr %retval, align 1
  br label %return

sw.default:                                       ; preds = %if.end
  call void @_Z26notify_assertion_violationPKciS0_(ptr noundef @.str, i32 noundef 1109, ptr noundef @.str.9)
  call void @exit(i32 noundef 114) #16
  unreachable

return:                                           ; preds = %sw.bb12, %sw.bb11, %sw.bb10, %sw.bb7, %sw.bb5, %sw.bb4, %sw.bb3, %sw.bb, %if.then
  %12 = load i1, ptr %retval, align 1
  ret i1 %12
}