; Function Attrs: mustprogress uwtable
define hidden noundef zeroext i1 @_ZN3smt9theory_bv16internalize_atomEP3appb(ptr noundef nonnull align 8 dereferenceable(1048) %this, ptr noundef %atom, i1 noundef zeroext %gate_ctx) unnamed_addr #3 align 2 {
entry:
  %call = tail call noundef zeroext i1 @_ZN3smt9theory_bv16approximate_termEP3app(ptr noundef nonnull align 8 dereferenceable(1048) %this, ptr noundef %atom)
  br i1 %call, label %return, label %if.end

if.end:                                           ; preds = %entry
  %m_decl.i.i = getelementptr inbounds i8, ptr %atom, i64 16
  %0 = load ptr, ptr %m_decl.i.i, align 8
  %m_info.i.i = getelementptr inbounds i8, ptr %0, i64 24
  %1 = load ptr, ptr %m_info.i.i, align 8
  %cmp.i.i = icmp eq ptr %1, null
  br i1 %cmp.i.i, label %sw.default, label %_ZNK3app13get_decl_kindEv.exit

_ZNK3app13get_decl_kindEv.exit:                   ; preds = %if.end
  %m_kind.i.i.i = getelementptr inbounds i8, ptr %1, i64 4
  %2 = load i32, ptr %m_kind.i.i.i, align 4
  switch i32 %2, label %sw.default [
    i32 63, label %sw.bb
    i32 22, label %sw.bb3
    i32 23, label %sw.bb4
    i32 68, label %sw.bb5
    i32 67, label %sw.bb7
    i32 52, label %sw.bb10
    i32 53, label %sw.bb11
    i32 54, label %sw.bb12
  ]

sw.bb:                                            ; preds = %_ZNK3app13get_decl_kindEv.exit
  tail call void @_ZN3smt9theory_bv11mk_bit2boolEP3app(ptr noundef nonnull align 8 dereferenceable(1048) %this, ptr noundef nonnull %atom)
  br label %return

sw.bb3:                                           ; preds = %_ZNK3app13get_decl_kindEv.exit
  tail call void @_ZN3smt9theory_bv14internalize_leILb0EEEvP3app(ptr noundef nonnull align 8 dereferenceable(1048) %this, ptr noundef nonnull %atom)
  br label %return

sw.bb4:                                           ; preds = %_ZNK3app13get_decl_kindEv.exit
  tail call void @_ZN3smt9theory_bv14internalize_leILb1EEEvP3app(ptr noundef nonnull align 8 dereferenceable(1048) %this, ptr noundef nonnull %atom)
  br label %return

sw.bb5:                                           ; preds = %_ZNK3app13get_decl_kindEv.exit
  %call6 = tail call noundef zeroext i1 @_ZN3smt9theory_bv16internalize_xor3EP3appb(ptr noundef nonnull align 8 dereferenceable(1048) %this, ptr noundef nonnull %atom, i1 noundef zeroext %gate_ctx)
  br label %return

sw.bb7:                                           ; preds = %_ZNK3app13get_decl_kindEv.exit
  %call9 = tail call noundef zeroext i1 @_ZN3smt9theory_bv17internalize_carryEP3appb(ptr noundef nonnull align 8 dereferenceable(1048) %this, ptr noundef nonnull %atom, i1 noundef zeroext %gate_ctx)
  br label %return

sw.bb10:                                          ; preds = %_ZNK3app13get_decl_kindEv.exit
  tail call void @_ZN3smt9theory_bv28internalize_umul_no_overflowEP3app(ptr noundef nonnull align 8 dereferenceable(1048) %this, ptr noundef nonnull %atom)
  br label %return

sw.bb11:                                          ; preds = %_ZNK3app13get_decl_kindEv.exit
  tail call void @_ZN3smt9theory_bv28internalize_smul_no_overflowEP3app(ptr noundef nonnull align 8 dereferenceable(1048) %this, ptr noundef nonnull %atom)
  br label %return

sw.bb12:                                          ; preds = %_ZNK3app13get_decl_kindEv.exit
  tail call void @_ZN3smt9theory_bv29internalize_smul_no_underflowEP3app(ptr noundef nonnull align 8 dereferenceable(1048) %this, ptr noundef nonnull %atom)
  br label %return

sw.default:                                       ; preds = %if.end, %_ZNK3app13get_decl_kindEv.exit
  tail call void @_Z26notify_assertion_violationPKciS0_(ptr noundef nonnull @.str, i32 noundef 1109, ptr noundef nonnull @.str.9)
  tail call void @exit(i32 noundef 114) #24
  unreachable

return:                                           ; preds = %entry, %sw.bb12, %sw.bb11, %sw.bb10, %sw.bb7, %sw.bb5, %sw.bb4, %sw.bb3, %sw.bb
  %retval.0 = xor i1 %call, true
  ret i1 %retval.0
}